target datalayout = "e-m:e-p270:32:32-p271:32:32-p272:64:64-i64:64-i128:128-f80:128-n8:16:32:64-S128"
target triple = "x86_64-pc-linux-gnu"

%struct.gz_state = type { %struct.gzFile_s, i32, i32, ptr, i32, i32, ptr, ptr, i32, i32, i64, i32, i32, i32, i32, i64, i32, i32, ptr, %struct.z_stream_s }
%struct.gzFile_s = type { i32, ptr, i64 }
%struct.z_stream_s = type { ptr, i32, i64, ptr, i32, i64, ptr, ptr, ptr, ptr, ptr, i32, i64, i64, i32 }

; Function Attrs: nounwind uwtable
define internal i32 @gz_load(ptr noundef %0, ptr noundef %1, i32 noundef %2, ptr noundef %3) #0 {
  %5 = alloca i32, align 4
  %6 = alloca ptr, align 8
  %7 = alloca ptr, align 8
  %8 = alloca i32, align 4
  %9 = alloca ptr, align 8
  %10 = alloca i32, align 4
  %11 = alloca i32, align 4
  store ptr %0, ptr %6, align 8, !tbaa !8
  store ptr %1, ptr %7, align 8, !tbaa !40
  store i32 %2, ptr %8, align 4, !tbaa !9
  store ptr %3, ptr %9, align 8, !tbaa !41
  call void @llvm.lifetime.start.p0(i64 4, ptr %10) #8
  %12 = load ptr, ptr %9, align 8, !tbaa !41
  store i32 0, ptr %12, align 4, !tbaa !9
  br label %13

13:                                               ; preds = %37, %4
  %14 = load ptr, ptr %6, align 8, !tbaa !8
  %15 = getelementptr inbounds nuw %struct.gz_state, ptr %14, i32 0, i32 2
  %16 = load i32, ptr %15, align 4, !tbaa !43
  %17 = load ptr, ptr %7, align 8, !tbaa !40
  %18 = load ptr, ptr %9, align 8, !tbaa !41
  %19 = load i32, ptr %18, align 4, !tbaa !9
  %20 = zext i32 %19 to i64
  %21 = getelementptr inbounds nuw i8, ptr %17, i64 %20
  %22 = load i32, ptr %8, align 4, !tbaa !9
  %23 = load ptr, ptr %9, align 8, !tbaa !41
  %24 = load i32, ptr %23, align 4, !tbaa !9
  %25 = sub i32 %22, %24
  %26 = zext i32 %25 to i64
  %27 = call i64 @read(i32 noundef %16, ptr noundef %21, i64 noundef %26)
  %28 = trunc i64 %27 to i32
  store i32 %28, ptr %10, align 4, !tbaa !9
  %29 = load i32, ptr %10, align 4, !tbaa !9
  %30 = icmp sle i32 %29, 0
  br i1 %30, label %31, label %32

31:                                               ; preds = %13
  br label %42

32:                                               ; preds = %13
  %33 = load i32, ptr %10, align 4, !tbaa !9
  %34 = load ptr, ptr %9, align 8, !tbaa !41
  %35 = load i32, ptr %34, align 4, !tbaa !9
  %36 = add i32 %35, %33
  store i32 %36, ptr %34, align 4, !tbaa !9
  br label %37

37:                                               ; preds = %32
  %38 = load ptr, ptr %9, align 8, !tbaa !41
  %39 = load i32, ptr %38, align 4, !tbaa !9
  %40 = load i32, ptr %8, align 4, !tbaa !9
  %41 = icmp ult i32 %39, %40
  br i1 %41, label %13, label %42, !llvm.loop !44

42:                                               ; preds = %37, %31
  %43 = load i32, ptr %10, align 4, !tbaa !9
  %44 = icmp slt i32 %43, 0
  br i1 %44, label %45, label %50

45:                                               ; preds = %42
  %46 = load ptr, ptr %6, align 8, !tbaa !8
  %47 = call ptr @__errno_location() #9
  %48 = load i32, ptr %47, align 4, !tbaa !9
  %49 = call ptr @strerror(i32 noundef %48) #8
  call void @MOZ_Z_gz_error(ptr noundef %46, i32 noundef -1, ptr noundef %49)
  store i32 -1, ptr %5, align 4
  store i32 1, ptr %11, align 4
  br label %57

50:                                               ; preds = %42
  %51 = load i32, ptr %10, align 4, !tbaa !9
  %52 = icmp eq i32 %51, 0
  br i1 %52, label %53, label %56

53:                                               ; preds = %50
  %54 = load ptr, ptr %6, align 8, !tbaa !8
  %55 = getelementptr inbounds nuw %struct.gz_state, ptr %54, i32 0, i32 11
  store i32 1, ptr %55, align 8, !tbaa !25
  br label %56

56:                                               ; preds = %53, %50
  store i32 0, ptr %5, align 4
  store i32 1, ptr %11, align 4
  br label %57

57:                                               ; preds = %56, %45
  call void @llvm.lifetime.end.p0(i64 4, ptr %10) #8
  %58 = load i32, ptr %5, align 4
  ret i32 %58
}

; Function Attrs: nounwind uwtable
define internal i32 @gz_fetch(ptr noundef %0) #0 {
  %2 = alloca i32, align 4
  %3 = alloca ptr, align 8
  %4 = alloca ptr, align 8
  %5 = alloca i32, align 4
  store ptr %0, ptr %3, align 8, !tbaa !8
  call void @llvm.lifetime.start.p0(i64 8, ptr %4) #8
  %6 = load ptr, ptr %3, align 8, !tbaa !8
  %7 = getelementptr inbounds nuw %struct.gz_state, ptr %6, i32 0, i32 19
  store ptr %7, ptr %4, align 8, !tbaa !11
  br label %8

8:                                                ; preds = %82, %1
  %9 = load ptr, ptr %3, align 8, !tbaa !8
  %10 = getelementptr inbounds nuw %struct.gz_state, ptr %9, i32 0, i32 9
  %11 = load i32, ptr %10, align 4, !tbaa !28
  switch i32 %11, label %63 [
    i32 0, label %12
    i32 1, label %24
    i32 2, label %46
  ]

12:                                               ; preds = %8
  %13 = load ptr, ptr %3, align 8, !tbaa !8
  %14 = call i32 @gz_look(ptr noundef %13)
  %15 = icmp eq i32 %14, -1
  br i1 %15, label %16, label %17

16:                                               ; preds = %12
  store i32 -1, ptr %2, align 4
  store i32 1, ptr %5, align 4
  br label %85

17:                                               ; preds = %12
  %18 = load ptr, ptr %3, align 8, !tbaa !8
  %19 = getelementptr inbounds nuw %struct.gz_state, ptr %18, i32 0, i32 9
  %20 = load i32, ptr %19, align 4, !tbaa !28
  %21 = icmp eq i32 %20, 0
  br i1 %21, label %22, label %23

22:                                               ; preds = %17
  store i32 0, ptr %2, align 4
  store i32 1, ptr %5, align 4
  br label %85

23:                                               ; preds = %17
  br label %63

24:                                               ; preds = %8
  %25 = load ptr, ptr %3, align 8, !tbaa !8
  %26 = load ptr, ptr %3, align 8, !tbaa !8
  %27 = getelementptr inbounds nuw %struct.gz_state, ptr %26, i32 0, i32 7
  %28 = load ptr, ptr %27, align 8, !tbaa !38
  %29 = load ptr, ptr %3, align 8, !tbaa !8
  %30 = getelementptr inbounds nuw %struct.gz_state, ptr %29, i32 0, i32 4
  %31 = load i32, ptr %30, align 8, !tbaa !29
  %32 = shl i32 %31, 1
  %33 = load ptr, ptr %3, align 8, !tbaa !8
  %34 = getelementptr inbounds nuw %struct.gz_state, ptr %33, i32 0, i32 0
  %35 = getelementptr inbounds nuw %struct.gzFile_s, ptr %34, i32 0, i32 0
  %36 = call i32 @gz_load(ptr noundef %25, ptr noundef %28, i32 noundef %32, ptr noundef %35)
  %37 = icmp eq i32 %36, -1
  br i1 %37, label %38, label %39

38:                                               ; preds = %24
  store i32 -1, ptr %2, align 4
  store i32 1, ptr %5, align 4
  br label %85

39:                                               ; preds = %24
  %40 = load ptr, ptr %3, align 8, !tbaa !8
  %41 = getelementptr inbounds nuw %struct.gz_state, ptr %40, i32 0, i32 7
  %42 = load ptr, ptr %41, align 8, !tbaa !38
  %43 = load ptr, ptr %3, align 8, !tbaa !8
  %44 = getelementptr inbounds nuw %struct.gz_state, ptr %43, i32 0, i32 0
  %45 = getelementptr inbounds nuw %struct.gzFile_s, ptr %44, i32 0, i32 1
  store ptr %42, ptr %45, align 8, !tbaa !24
  store i32 0, ptr %2, align 4
  store i32 1, ptr %5, align 4
  br label %85

46:                                               ; preds = %8
  %47 = load ptr, ptr %3, align 8, !tbaa !8
  %48 = getelementptr inbounds nuw %struct.gz_state, ptr %47, i32 0, i32 4
  %49 = load i32, ptr %48, align 8, !tbaa !29
  %50 = shl i32 %49, 1
  %51 = load ptr, ptr %4, align 8, !tbaa !11
  %52 = getelementptr inbounds nuw %struct.z_stream_s, ptr %51, i32 0, i32 4
  store i32 %50, ptr %52, align 8, !tbaa !30
  %53 = load ptr, ptr %3, align 8, !tbaa !8
  %54 = getelementptr inbounds nuw %struct.gz_state, ptr %53, i32 0, i32 7
  %55 = load ptr, ptr %54, align 8, !tbaa !38
  %56 = load ptr, ptr %4, align 8, !tbaa !11
  %57 = getelementptr inbounds nuw %struct.z_stream_s, ptr %56, i32 0, i32 3
  store ptr %55, ptr %57, align 8, !tbaa !31
  %58 = load ptr, ptr %3, align 8, !tbaa !8
  %59 = call i32 @gz_decomp(ptr noundef %58)
  %60 = icmp eq i32 %59, -1
  br i1 %60, label %61, label %62

61:                                               ; preds = %46
  store i32 -1, ptr %2, align 4
  store i32 1, ptr %5, align 4
  br label %85

62:                                               ; preds = %46
  br label %63

63:                                               ; preds = %62, %8, %23
  br label %64

64:                                               ; preds = %63
  %65 = load ptr, ptr %3, align 8, !tbaa !8
  %66 = getelementptr inbounds nuw %struct.gz_state, ptr %65, i32 0, i32 0
  %67 = getelementptr inbounds nuw %struct.gzFile_s, ptr %66, i32 0, i32 0
  %68 = load i32, ptr %67, align 8, !tbaa !23
  %69 = icmp eq i32 %68, 0
  br i1 %69, label %70, label %82

70:                                               ; preds = %64
  %71 = load ptr, ptr %3, align 8, !tbaa !8
  %72 = getelementptr inbounds nuw %struct.gz_state, ptr %71, i32 0, i32 11
  %73 = load i32, ptr %72, align 8, !tbaa !25
  %74 = icmp ne i32 %73, 0
  br i1 %74, label %75, label %80

75:                                               ; preds = %70
  %76 = load ptr, ptr %4, align 8, !tbaa !11
  %77 = getelementptr inbounds nuw %struct.z_stream_s, ptr %76, i32 0, i32 1
  %78 = load i32, ptr %77, align 8, !tbaa !26
  %79 = icmp ne i32 %78, 0
  br label %80

80:                                               ; preds = %75, %70
  %81 = phi i1 [ true, %70 ], [ %79, %75 ]
  br label %82

82:                                               ; preds = %80, %64
  %83 = phi i1 [ false, %64 ], [ %81, %80 ]
  br i1 %83, label %8, label %84, !llvm.loop !39

84:                                               ; preds = %82
  store i32 0, ptr %2, align 4
  store i32 1, ptr %5, align 4
  br label %85

85:                                               ; preds = %84, %61, %39, %38, %22, %16
  call void @llvm.lifetime.end.p0(i64 8, ptr %4) #8
  %86 = load i32, ptr %2, align 4
  ret i32 %86
}