; Function Attrs: nounwind uwtable
define internal fastcc range(i32 -1, 1) i32 @gz_fetch(ptr noundef nonnull %0) unnamed_addr #0 {
  %2 = getelementptr inbounds nuw i8, ptr %0, i64 68
  %3 = getelementptr inbounds nuw i8, ptr %0, i64 40
  %4 = getelementptr inbounds nuw i8, ptr %0, i64 152
  %5 = getelementptr inbounds nuw i8, ptr %0, i64 56
  %6 = getelementptr inbounds nuw i8, ptr %0, i64 144
  %7 = getelementptr inbounds nuw i8, ptr %0, i64 80
  %8 = getelementptr inbounds nuw i8, ptr %0, i64 128
  br label %.critedge2

.critedge2:                                       ; preds = %.critedge2.backedge, %1
  %9 = load i32, ptr %2, align 4, !tbaa !26
  switch i32 %9, label %49 [
    i32 0, label %10
    i32 1, label %16
    i32 2, label %43
  ]

10:                                               ; preds = %.critedge2
  %11 = tail call fastcc i32 @gz_look(ptr noundef %0)
  %12 = icmp eq i32 %11, -1
  br i1 %12, label %.critedge, label %13

13:                                               ; preds = %10
  %14 = load i32, ptr %2, align 4, !tbaa !26
  %15 = icmp eq i32 %14, 0
  br i1 %15, label %.critedge, label %49

16:                                               ; preds = %.critedge2
  %17 = load ptr, ptr %5, align 8, !tbaa !34
  %18 = load i32, ptr %3, align 8, !tbaa !27
  %19 = shl i32 %18, 1
  store i32 0, ptr %0, align 4, !tbaa !30
  %20 = getelementptr inbounds nuw i8, ptr %0, i64 28
  br label %21

21:                                               ; preds = %31, %16
  %22 = phi i32 [ %33, %31 ], [ 0, %16 ]
  %23 = load i32, ptr %20, align 4, !tbaa !28
  %24 = zext i32 %22 to i64
  %25 = getelementptr inbounds nuw i8, ptr %17, i64 %24
  %26 = sub i32 %19, %22
  %27 = zext i32 %26 to i64
  %28 = tail call i64 @read(i32 noundef %23, ptr noundef %25, i64 noundef %27) #12
  %29 = trunc i64 %28 to i32
  %30 = icmp slt i32 %29, 1
  br i1 %30, label %35, label %31

31:                                               ; preds = %21
  %32 = load i32, ptr %0, align 4, !tbaa !30
  %33 = add i32 %32, %29
  store i32 %33, ptr %0, align 4, !tbaa !30
  %34 = icmp ult i32 %33, %19
  br i1 %34, label %21, label %.loopexit, !llvm.loop !29

35:                                               ; preds = %21
  %36 = icmp slt i32 %29, 0
  br i1 %36, label %gz_load.exit, label %37

37:                                               ; preds = %35
  store i32 1, ptr %7, align 8, !tbaa !20
  br label %.loopexit

gz_load.exit:                                     ; preds = %35
  %38 = tail call ptr @__errno_location() #13
  %39 = load i32, ptr %38, align 4, !tbaa !30
  %40 = tail call ptr @strerror(i32 noundef %39) #12
  tail call void @MOZ_Z_gz_error(ptr noundef nonnull %0, i32 noundef -1, ptr noundef %40) #12
  br label %.critedge

.loopexit:                                        ; preds = %31, %37
  %41 = load ptr, ptr %5, align 8, !tbaa !34
  %42 = getelementptr inbounds nuw i8, ptr %0, i64 8
  store ptr %41, ptr %42, align 8, !tbaa !18
  br label %.critedge

43:                                               ; preds = %.critedge2
  %44 = load i32, ptr %3, align 8, !tbaa !27
  %45 = shl i32 %44, 1
  store i32 %45, ptr %4, align 8, !tbaa !31
  %46 = load ptr, ptr %5, align 8, !tbaa !34
  store ptr %46, ptr %6, align 8, !tbaa !32
  %47 = tail call fastcc i32 @gz_decomp(ptr noundef %0)
  %48 = icmp eq i32 %47, -1
  br i1 %48, label %.critedge, label %49

49:                                               ; preds = %.critedge2, %13, %43
  %50 = load i32, ptr %0, align 8, !tbaa !17
  %51 = icmp eq i32 %50, 0
  br i1 %51, label %52, label %.critedge

52:                                               ; preds = %49
  %53 = load i32, ptr %7, align 8, !tbaa !20
  %.not = icmp eq i32 %53, 0
  br i1 %.not, label %.critedge2.backedge, label %54

54:                                               ; preds = %52
  %55 = load i32, ptr %8, align 8, !tbaa !24
  %.not20 = icmp eq i32 %55, 0
  br i1 %.not20, label %.critedge, label %.critedge2.backedge

.critedge2.backedge:                              ; preds = %54, %52
  br label %.critedge2, !llvm.loop !35

.critedge:                                        ; preds = %54, %49, %43, %13, %10, %gz_load.exit, %.loopexit
  %.0 = phi i32 [ 0, %.loopexit ], [ -1, %gz_load.exit ], [ 0, %54 ], [ 0, %49 ], [ -1, %43 ], [ 0, %13 ], [ -1, %10 ]
  ret i32 %.0
}